; Function Attrs: mustprogress uwtable
define hidden void @_ZN8map_proc5visitEP10quantifier(ptr noundef nonnull align 8 dereferenceable(80) %this, ptr noundef %e) local_unnamed_addr #3 align 2 personality ptr @__gxx_personality_v0 {
entry:
  %result.i = alloca ptr, align 8
  %p.i = alloca ptr, align 8
  %q = alloca %class.obj_ref.39, align 8
  %0 = load ptr, ptr %this, align 8
  store ptr null, ptr %q, align 8
  %m_manager.i = getelementptr inbounds i8, ptr %q, i64 8
  store ptr %0, ptr %m_manager.i, align 8
  %m_expr.i = getelementptr inbounds i8, ptr %e, i64 24
  %1 = load ptr, ptr %m_expr.i, align 8
  call void @llvm.lifetime.start.p0(i64 8, ptr nonnull %result.i)
  call void @llvm.lifetime.start.p0(i64 8, ptr nonnull %p.i)
  store ptr null, ptr %result.i, align 8
  store ptr null, ptr %p.i, align 8
  %m_map.i = getelementptr inbounds i8, ptr %this, i64 8
  invoke void @_ZNK8expr_map3getEP4exprRS1_RP3app(ptr noundef nonnull align 8 dereferenceable(64) %m_map.i, ptr noundef %1, ptr noundef nonnull align 8 dereferenceable(8) %result.i, ptr noundef nonnull align 8 dereferenceable(8) %p.i)
          to label %invoke.cont3 unwind label %lpad

invoke.cont3:                                     ; preds = %entry
  %2 = load ptr, ptr %result.i, align 8
  call void @llvm.lifetime.end.p0(i64 8, ptr nonnull %result.i)
  call void @llvm.lifetime.end.p0(i64 8, ptr nonnull %p.i)
  %call6 = invoke noundef ptr @_ZN11ast_manager17update_quantifierEP10quantifierP4expr(ptr noundef nonnull align 8 dereferenceable(976) %0, ptr noundef nonnull %e, ptr noundef %2)
          to label %invoke.cont5 unwind label %lpad

invoke.cont5:                                     ; preds = %invoke.cont3
  %tobool.not.i = icmp eq ptr %call6, null
  br i1 %tobool.not.i, label %invoke.cont7, label %_ZN11ast_manager7inc_refEP3ast.exit.i

_ZN11ast_manager7inc_refEP3ast.exit.i:            ; preds = %invoke.cont5
  %m_ref_count.i.i.i = getelementptr inbounds i8, ptr %call6, i64 8
  %3 = load i32, ptr %m_ref_count.i.i.i, align 4
  %inc.i.i.i = add i32 %3, 1
  store i32 %inc.i.i.i, ptr %m_ref_count.i.i.i, align 4
  br label %invoke.cont7

invoke.cont7:                                     ; preds = %invoke.cont5, %_ZN11ast_manager7inc_refEP3ast.exit.i
  store ptr %call6, ptr %q, align 8
  invoke void @_ZN8expr_map6insertEP4exprS1_P3app(ptr noundef nonnull align 8 dereferenceable(64) %m_map.i, ptr noundef nonnull %e, ptr noundef %call6, ptr noundef null)
          to label %invoke.cont11 unwind label %lpad

invoke.cont11:                                    ; preds = %invoke.cont7
  br i1 %tobool.not.i, label %_ZN7obj_refI4expr11ast_managerED2Ev.exit, label %if.then.i.i.i3

if.then.i.i.i3:                                   ; preds = %invoke.cont11
  %m_ref_count.i.i.i.i5 = getelementptr inbounds i8, ptr %call6, i64 8
  %4 = load i32, ptr %m_ref_count.i.i.i.i5, align 4
  %dec.i.i.i.i6 = add i32 %4, -1
  store i32 %dec.i.i.i.i6, ptr %m_ref_count.i.i.i.i5, align 4
  %cmp.i.i.i7 = icmp eq i32 %dec.i.i.i.i6, 0
  br i1 %cmp.i.i.i7, label %if.then2.i.i.i8, label %_ZN7obj_refI4expr11ast_managerED2Ev.exit

if.then2.i.i.i8:                                  ; preds = %if.then.i.i.i3
  invoke void @_ZN11ast_manager11delete_nodeEP3ast(ptr noundef nonnull align 8 dereferenceable(976) %0, ptr noundef nonnull %call6)
          to label %_ZN7obj_refI4expr11ast_managerED2Ev.exit unwind label %terminate.lpad.i

terminate.lpad.i:                                 ; preds = %if.then2.i.i.i8
  %5 = landingpad { ptr, i32 }
          catch ptr null
  %6 = extractvalue { ptr, i32 } %5, 0
  call void @__clang_call_terminate(ptr %6) #12
  unreachable

_ZN7obj_refI4expr11ast_managerED2Ev.exit:         ; preds = %invoke.cont11, %if.then.i.i.i3, %if.then2.i.i.i8
  ret void

lpad:                                             ; preds = %entry, %invoke.cont7, %invoke.cont3
  %7 = landingpad { ptr, i32 }
          cleanup
  call void @_ZN7obj_refI4expr11ast_managerED2Ev(ptr noundef nonnull align 8 dereferenceable(16) %q) #11
  resume { ptr, i32 } %7
}